; Function Attrs: mustprogress nounwind uwtable
define hidden void @_ZN3dpx14IndustryHeader11SetUserBitsEPKc(ptr noundef nonnull writeonly align 4 captures(none) dereferenceable(384) %0, ptr noundef %1) local_unnamed_addr #6 align 2 {
  %3 = tail call noundef i64 @_ZN11OpenImageIO6v3_1_07Strutil11safe_strlenEPKcm(ptr noundef %1, i64 noundef 12) #29
  %.not.i = icmp eq i64 %3, 11
  br i1 %.not.i, label %.preheader.i, label %_ZNK3dpx14IndustryHeader12TCFromStringEPKc.exit.thread

.preheader.i:                                     ; preds = %2, %12
  %.02026.i = phi i32 [ %21, %12 ], [ 0, %2 ]
  %.02125.i = phi i32 [ %22, %12 ], [ 0, %2 ]
  %.02224.i = phi i32 [ %23, %12 ], [ 0, %2 ]
  %4 = srem i32 %.02224.i, 3
  %5 = icmp eq i32 %4, 2
  %6 = zext i1 %5 to i32
  %7 = add nsw i32 %.02224.i, %6
  %8 = sext i32 %7 to i64
  %9 = getelementptr inbounds i8, ptr %1, i64 %8
  %10 = load i8, ptr %9, align 1, !tbaa !14
  %11 = add i8 %10, -58
  %or.cond.i = icmp ult i8 %11, -10
  br i1 %or.cond.i, label %_ZNK3dpx14IndustryHeader12TCFromStringEPKc.exit.thread, label %12

12:                                               ; preds = %.preheader.i
  %13 = shl nuw nsw i32 %.02125.i, 2
  %14 = sub nuw nsw i32 28, %13
  %15 = shl nuw i32 15, %14
  %16 = xor i32 %15, -1
  %17 = and i32 %.02026.i, %16
  %18 = and i8 %10, 15
  %19 = zext nneg i8 %18 to i32
  %20 = shl nuw i32 %19, %14
  %21 = or i32 %20, %17
  %22 = add nuw nsw i32 %.02125.i, 1
  %23 = add nsw i32 %7, 1
  %exitcond.not.i = icmp eq i32 %22, 8
  br i1 %exitcond.not.i, label %_ZNK3dpx14IndustryHeader12TCFromStringEPKc.exit, label %.preheader.i, !llvm.loop !87

_ZNK3dpx14IndustryHeader12TCFromStringEPKc.exit:  ; preds = %12
  %.not = icmp eq i32 %21, -1
  br i1 %.not, label %_ZNK3dpx14IndustryHeader12TCFromStringEPKc.exit.thread, label %24

24:                                               ; preds = %_ZNK3dpx14IndustryHeader12TCFromStringEPKc.exit
  %25 = getelementptr inbounds nuw i8, ptr %0, i64 260
  store i32 %21, ptr %25, align 4, !tbaa !83
  br label %_ZNK3dpx14IndustryHeader12TCFromStringEPKc.exit.thread

_ZNK3dpx14IndustryHeader12TCFromStringEPKc.exit.thread: ; preds = %.preheader.i, %2, %24, %_ZNK3dpx14IndustryHeader12TCFromStringEPKc.exit
  ret void
}